; Function Attrs: nounwind uwtable
define internal void @tablet_tool_handle_proximity_out(ptr noundef captures(none) initializes((24, 32)) %0, ptr readnone captures(none) %1) #0 {
  %3 = getelementptr inbounds nuw i8, ptr %0, i64 24
  store ptr null, ptr %3, align 8
  %4 = load i32, ptr %0, align 8
  %.not = icmp eq i32 %4, 0
  br i1 %.not, label %6, label %5

5:                                                ; preds = %2
  tail call void @SDL_RemovePenDevice(i64 noundef 0, i32 noundef %4) #12
  store i32 0, ptr %0, align 8
  br label %6

6:                                                ; preds = %5, %2
  ret void
}